target datalayout = "e-m:e-p270:32:32-p271:32:32-p272:64:64-i64:64-i128:128-f80:128-n8:16:32:64-S128"
target triple = "x86_64-pc-linux-gnu"

%"class.icu_77::ICUDataTable" = type { ptr, %"class.icu_77::Locale" }
%"class.icu_77::Locale" = type <{ %"class.icu_77::UObject", [12 x i8], [6 x i8], [4 x i8], [2 x i8], i32, [4 x i8], ptr, [157 x i8], [3 x i8], ptr, i8, [7 x i8] }>
%"class.icu_77::UObject" = type { ptr }
%"class.icu_77::UnicodeString" = type { %"class.icu_77::Replaceable", %"union.icu_77::UnicodeString::StackBufferOrFields" }
%"class.icu_77::Replaceable" = type { %"class.icu_77::UObject" }
%"union.icu_77::UnicodeString::StackBufferOrFields" = type { %struct.anon.0, [32 x i8] }
%struct.anon.0 = type { i16, i32, i32, ptr }
%"class.icu_77::LocaleDisplayNamesImpl" = type <{ %"class.icu_77::LocaleDisplayNames", %"class.icu_77::Locale", i32, [4 x i8], %"class.icu_77::ICUDataTable", %"class.icu_77::ICUDataTable", %"class.icu_77::SimpleFormatter", %"class.icu_77::SimpleFormatter", %"class.icu_77::SimpleFormatter", i32, [4 x i8], ptr, %"class.icu_77::UnicodeString", %"class.icu_77::UnicodeString", %"class.icu_77::UnicodeString", %"class.icu_77::UnicodeString", i32, i32, [6 x i8], [2 x i8] }>
%"class.icu_77::LocaleDisplayNames" = type { %"class.icu_77::UObject" }
%"class.icu_77::SimpleFormatter" = type { [8 x i8], %"class.icu_77::UnicodeString" }

; Function Attrs: inlinehint mustprogress uwtable
define linkonce_odr noundef nonnull align 8 dereferenceable(64) ptr @_ZN6icu_7713UnicodeString5setToERKS0_(ptr noundef nonnull align 8 dereferenceable(64) %0, ptr noundef nonnull align 8 dereferenceable(64) %1) #3 comdat align 2 {
  %3 = alloca ptr, align 8
  %4 = alloca ptr, align 8
  store ptr %0, ptr %3, align 8, !tbaa !31
  store ptr %1, ptr %4, align 8, !tbaa !31
  %5 = load ptr, ptr %3, align 8
  %6 = load ptr, ptr %4, align 8, !tbaa !31
  %7 = call noundef nonnull align 8 dereferenceable(64) ptr @_ZN6icu_7713UnicodeString8copyFromERKS0_a(ptr noundef nonnull align 8 dereferenceable(64) %5, ptr noundef nonnull align 8 dereferenceable(64) %6, i8 noundef signext 0)
  ret ptr %7
}

; Function Attrs: inlinehint mustprogress nounwind uwtable
define linkonce_odr noundef signext i8 @_ZNK6icu_7713UnicodeString7isEmptyEv(ptr noundef nonnull align 8 dereferenceable(64) %0) #2 comdat align 2 {
  %2 = alloca ptr, align 8
  store ptr %0, ptr %2, align 8, !tbaa !31
  %3 = load ptr, ptr %2, align 8
  %4 = getelementptr inbounds nuw %"class.icu_77::UnicodeString", ptr %3, i32 0, i32 1
  %5 = getelementptr inbounds nuw %struct.anon.0, ptr %4, i32 0, i32 0
  %6 = load i16, ptr %5, align 8, !tbaa !58
  %7 = sext i16 %6 to i32
  %8 = ashr i32 %7, 5
  %9 = icmp eq i32 %8, 0
  %10 = zext i1 %9 to i8
  ret i8 %10
}

; Function Attrs: mustprogress uwtable
define noundef nonnull align 8 dereferenceable(64) ptr @_ZNK6icu_7722LocaleDisplayNamesImpl13appendWithSepERNS_13UnicodeStringERKS1_(ptr noundef nonnull align 8 dereferenceable(1206) %0, ptr noundef nonnull align 8 dereferenceable(64) %1, ptr noundef nonnull align 8 dereferenceable(64) %2) #1 align 2 {
  %4 = alloca ptr, align 8
  %5 = alloca ptr, align 8
  %6 = alloca ptr, align 8
  %7 = alloca [2 x ptr], align 16
  %8 = alloca i32, align 4
  store ptr %0, ptr %4, align 8, !tbaa !38
  store ptr %1, ptr %5, align 8, !tbaa !31
  store ptr %2, ptr %6, align 8, !tbaa !31
  %9 = load ptr, ptr %4, align 8
  %10 = load ptr, ptr %5, align 8, !tbaa !31
  %11 = call noundef signext i8 @_ZNK6icu_7713UnicodeString7isEmptyEv(ptr noundef nonnull align 8 dereferenceable(64) %10)
  %12 = icmp ne i8 %11, 0
  br i1 %12, label %13, label %17

13:                                               ; preds = %3
  %14 = load ptr, ptr %5, align 8, !tbaa !31
  %15 = load ptr, ptr %6, align 8, !tbaa !31
  %16 = call noundef nonnull align 8 dereferenceable(64) ptr @_ZN6icu_7713UnicodeString5setToERKS0_(ptr noundef nonnull align 8 dereferenceable(64) %14, ptr noundef nonnull align 8 dereferenceable(64) %15)
  br label %25

17:                                               ; preds = %3
  call void @llvm.lifetime.start.p0(i64 16, ptr %7) #13
  %18 = load ptr, ptr %5, align 8, !tbaa !31
  store ptr %18, ptr %7, align 8, !tbaa !31
  %19 = getelementptr inbounds ptr, ptr %7, i64 1
  %20 = load ptr, ptr %6, align 8, !tbaa !31
  store ptr %20, ptr %19, align 8, !tbaa !31
  call void @llvm.lifetime.start.p0(i64 4, ptr %8) #13
  store i32 0, ptr %8, align 4, !tbaa !15
  %21 = getelementptr inbounds nuw %"class.icu_77::LocaleDisplayNamesImpl", ptr %9, i32 0, i32 6
  %22 = getelementptr inbounds [2 x ptr], ptr %7, i64 0, i64 0
  %23 = load ptr, ptr %5, align 8, !tbaa !31
  %24 = call noundef nonnull align 8 dereferenceable(64) ptr @_ZNK6icu_7715SimpleFormatter16formatAndReplaceEPKPKNS_13UnicodeStringEiRS1_PiiR10UErrorCode(ptr noundef nonnull align 8 dereferenceable(72) %21, ptr noundef %22, i32 noundef 2, ptr noundef nonnull align 8 dereferenceable(64) %23, ptr noundef null, i32 noundef 0, ptr noundef nonnull align 4 dereferenceable(4) %8)
  call void @llvm.lifetime.end.p0(i64 4, ptr %8) #13
  call void @llvm.lifetime.end.p0(i64 16, ptr %7) #13
  br label %25

25:                                               ; preds = %17, %13
  %26 = load ptr, ptr %5, align 8, !tbaa !31
  ret ptr %26
}