; Function Attrs: mustprogress uwtable
define noundef nonnull align 8 dereferenceable(64) ptr @_ZNK6icu_7722LocaleDisplayNamesImpl13appendWithSepERNS_13UnicodeStringERKS1_(ptr noundef nonnull align 8 dereferenceable(1206) %0, ptr noundef nonnull returned align 8 dereferenceable(64) %1, ptr noundef nonnull align 8 dereferenceable(64) %2) local_unnamed_addr #1 align 2 {
  %4 = alloca [2 x ptr], align 16
  %5 = alloca i32, align 4
  %6 = getelementptr inbounds nuw i8, ptr %1, i64 8
  %7 = load i16, ptr %6, align 8, !tbaa !20
  %8 = icmp ugt i16 %7, 31
  br i1 %8, label %11, label %9

9:                                                ; preds = %3
  %10 = tail call noundef nonnull align 8 dereferenceable(64) ptr @_ZN6icu_7713UnicodeString8copyFromERKS0_a(ptr noundef nonnull align 8 dereferenceable(64) %1, ptr noundef nonnull align 8 dereferenceable(64) %2, i8 noundef signext 0)
  br label %15

11:                                               ; preds = %3
  call void @llvm.lifetime.start.p0(i64 16, ptr nonnull %4) #19
  store ptr %1, ptr %4, align 16, !tbaa !56
  %12 = getelementptr inbounds nuw i8, ptr %4, i64 8
  store ptr %2, ptr %12, align 8, !tbaa !56
  call void @llvm.lifetime.start.p0(i64 4, ptr nonnull %5) #19
  store i32 0, ptr %5, align 4, !tbaa !13
  %13 = getelementptr inbounds nuw i8, ptr %0, i64 704
  %14 = call noundef nonnull align 8 dereferenceable(64) ptr @_ZNK6icu_7715SimpleFormatter16formatAndReplaceEPKPKNS_13UnicodeStringEiRS1_PiiR10UErrorCode(ptr noundef nonnull align 8 dereferenceable(72) %13, ptr noundef nonnull %4, i32 noundef 2, ptr noundef nonnull align 8 dereferenceable(64) %1, ptr noundef null, i32 noundef 0, ptr noundef nonnull align 4 dereferenceable(4) %5)
  call void @llvm.lifetime.end.p0(i64 4, ptr nonnull %5) #19
  call void @llvm.lifetime.end.p0(i64 16, ptr nonnull %4) #19
  br label %15

15:                                               ; preds = %11, %9
  ret ptr %1
}